target datalayout = "e-m:e-p270:32:32-p271:32:32-p272:64:64-i64:64-i128:128-f80:128-n8:16:32:64-S128"
target triple = "x86_64-pc-linux-gnu"

%struct.Gia_Man_t_ = type { ptr, ptr, i32, i32, i32, i32, ptr, ptr, i32, i32, i32, ptr, ptr, %struct.Vec_Int_t_, %struct.Vec_Int_t_, i32, i32, i32, %struct.Vec_Int_t_, ptr, ptr, ptr, i32, i32, i32, i32, ptr, ptr, ptr, ptr, ptr, i32, i32, ptr, i32, ptr, ptr, ptr, ptr, ptr, ptr, ptr, ptr, ptr, ptr, ptr, ptr, ptr, ptr, ptr, ptr, ptr, ptr, %struct.Vec_Int_t_, %struct.Vec_Int_t_, ptr, ptr, ptr, ptr, ptr, ptr, ptr, ptr, ptr, ptr, ptr, ptr, ptr, ptr, ptr, ptr, ptr, ptr, ptr, ptr, ptr, i32, float, float, ptr, ptr, i32, ptr, ptr, ptr, ptr, ptr, ptr, ptr, ptr, ptr, ptr, ptr, ptr, ptr, ptr, ptr, i64, i64, ptr, ptr, i32, i32, i32, i32, i32, i32, i32, i32, i32, i32, i32, i32, ptr, ptr, ptr, ptr, ptr, ptr, ptr, ptr, i32, i32, i32, ptr, i32, i32, ptr, ptr, ptr, ptr, ptr, ptr, i32, i32, ptr, %struct.Vec_Int_t_, %struct.Vec_Int_t_, %struct.Vec_Int_t_, ptr, ptr, ptr, i32, i32, i32, i32, ptr, ptr, ptr, ptr, ptr }
%struct.Vec_Int_t_ = type { i32, i32, ptr }
%struct.Vec_Wec_t_ = type { i32, i32, ptr }

@.str.4 = private unnamed_addr constant [6 x i8] c"paths\00", align 1

; Function Attrs: inlinehint nounwind uwtable
define internal ptr @Vec_WecEntry(ptr noundef %0, i32 noundef %1) #1 {
  %3 = alloca ptr, align 8
  %4 = alloca i32, align 4
  store ptr %0, ptr %3, align 8, !tbaa !47
  store i32 %1, ptr %4, align 4, !tbaa !3
  %5 = load ptr, ptr %3, align 8, !tbaa !47
  %6 = getelementptr inbounds nuw %struct.Vec_Wec_t_, ptr %5, i32 0, i32 2
  %7 = load ptr, ptr %6, align 8, !tbaa !53
  %8 = load i32, ptr %4, align 4, !tbaa !3
  %9 = sext i32 %8 to i64
  %10 = getelementptr inbounds %struct.Vec_Int_t_, ptr %7, i64 %9
  ret ptr %10
}

; Function Attrs: inlinehint nounwind uwtable
define internal i32 @Vec_WecSize(ptr noundef %0) #1 {
  %2 = alloca ptr, align 8
  store ptr %0, ptr %2, align 8, !tbaa !47
  %3 = load ptr, ptr %2, align 8, !tbaa !47
  %4 = getelementptr inbounds nuw %struct.Vec_Wec_t_, ptr %3, i32 0, i32 1
  %5 = load i32, ptr %4, align 4, !tbaa !50
  ret i32 %5
}

; Function Attrs: inlinehint nounwind uwtable
define internal i32 @Vec_IntSize(ptr noundef %0) #1 {
  %2 = alloca ptr, align 8
  store ptr %0, ptr %2, align 8, !tbaa !39
  %3 = load ptr, ptr %2, align 8, !tbaa !39
  %4 = getelementptr inbounds nuw %struct.Vec_Int_t_, ptr %3, i32 0, i32 1
  %5 = load i32, ptr %4, align 4, !tbaa !43
  ret i32 %5
}

; Function Attrs: inlinehint nounwind uwtable
define internal ptr @Abc_UtilStrsav(ptr noundef %0) #1 {
  %2 = alloca ptr, align 8
  store ptr %0, ptr %2, align 8, !tbaa !87
  %3 = load ptr, ptr %2, align 8, !tbaa !87
  %4 = icmp ne ptr %3, null
  br i1 %4, label %5, label %13

5:                                                ; preds = %1
  %6 = load ptr, ptr %2, align 8, !tbaa !87
  %7 = call i64 @strlen(ptr noundef %6) #15
  %8 = add i64 %7, 1
  %9 = mul i64 1, %8
  %10 = call noalias ptr @malloc(i64 noundef %9) #14
  %11 = load ptr, ptr %2, align 8, !tbaa !87
  %12 = call ptr @strcpy(ptr noundef %10, ptr noundef %11) #12
  br label %14

13:                                               ; preds = %1
  br label %14

14:                                               ; preds = %13, %5
  %15 = phi ptr [ %12, %5 ], [ null, %13 ]
  ret ptr %15
}

; Function Attrs: nounwind uwtable
define ptr @Abc_GraphDeriveGia(ptr noundef %0, ptr noundef %1) #0 {
  %3 = alloca ptr, align 8
  %4 = alloca ptr, align 8
  %5 = alloca ptr, align 8
  %6 = alloca i32, align 4
  %7 = alloca i32, align 4
  %8 = alloca [1000 x i32], align 16
  %9 = alloca ptr, align 8
  %10 = alloca ptr, align 8
  %11 = alloca ptr, align 8
  store ptr %0, ptr %3, align 8, !tbaa !47
  store ptr %1, ptr %4, align 8, !tbaa !39
  call void @llvm.lifetime.start.p0(i64 8, ptr %5) #12
  call void @llvm.lifetime.start.p0(i64 4, ptr %6) #12
  call void @llvm.lifetime.start.p0(i64 4, ptr %7) #12
  call void @llvm.lifetime.start.p0(i64 4000, ptr %8) #12
  call void @llvm.memset.p0.i64(ptr align 16 %8, i8 0, i64 4000, i1 false)
  call void @llvm.lifetime.start.p0(i64 8, ptr %9) #12
  call void @llvm.lifetime.start.p0(i64 8, ptr %10) #12
  call void @llvm.lifetime.start.p0(i64 8, ptr %11) #12
  %12 = call ptr @Gia_ManStart(i32 noundef 1000)
  store ptr %12, ptr %11, align 8, !tbaa !7
  %13 = call ptr @Abc_UtilStrsav(ptr noundef @.str.4)
  %14 = load ptr, ptr %11, align 8, !tbaa !7
  %15 = getelementptr inbounds nuw %struct.Gia_Man_t_, ptr %14, i32 0, i32 0
  store ptr %13, ptr %15, align 8, !tbaa !83
  store i32 0, ptr %6, align 4, !tbaa !3
  br label %16

16:                                               ; preds = %25, %2
  %17 = load i32, ptr %6, align 4, !tbaa !3
  %18 = load ptr, ptr %4, align 8, !tbaa !39
  %19 = call i32 @Vec_IntSize(ptr noundef %18)
  %20 = sdiv i32 %19, 2
  %21 = icmp slt i32 %17, %20
  br i1 %21, label %22, label %28

22:                                               ; preds = %16
  %23 = load ptr, ptr %11, align 8, !tbaa !7
  %24 = call i32 @Gia_ManAppendCi(ptr noundef %23)
  br label %25

25:                                               ; preds = %22
  %26 = load i32, ptr %6, align 4, !tbaa !3
  %27 = add nsw i32 %26, 1
  store i32 %27, ptr %6, align 4, !tbaa !3
  br label %16, !llvm.loop !84

28:                                               ; preds = %16
  %29 = load ptr, ptr %11, align 8, !tbaa !7
  call void @Gia_ManHashAlloc(ptr noundef %29)
  %30 = load ptr, ptr %3, align 8, !tbaa !47
  %31 = call i32 @Vec_WecSize(ptr noundef %30)
  %32 = sext i32 %31 to i64
  %33 = mul i64 8, %32
  %34 = call noalias ptr @malloc(i64 noundef %33) #14
  store ptr %34, ptr %5, align 8, !tbaa !81
  store i32 0, ptr %6, align 4, !tbaa !3
  br label %35

35:                                               ; preds = %60, %28
  %36 = load i32, ptr %6, align 4, !tbaa !3
  %37 = load ptr, ptr %3, align 8, !tbaa !47
  %38 = call i32 @Vec_WecSize(ptr noundef %37)
  %39 = icmp slt i32 %36, %38
  br i1 %39, label %40, label %44

40:                                               ; preds = %35
  %41 = load ptr, ptr %3, align 8, !tbaa !47
  %42 = load i32, ptr %6, align 4, !tbaa !3
  %43 = call ptr @Vec_WecEntry(ptr noundef %41, i32 noundef %42)
  store ptr %43, ptr %9, align 8, !tbaa !39
  br label %44

44:                                               ; preds = %40, %35
  %45 = phi i1 [ false, %35 ], [ true, %40 ]
  br i1 %45, label %46, label %63

46:                                               ; preds = %44
  %47 = load ptr, ptr %9, align 8, !tbaa !39
  %48 = call i32 @Vec_IntSize(ptr noundef %47)
  %49 = sext i32 %48 to i64
  %50 = mul i64 4, %49
  %51 = call noalias ptr @malloc(i64 noundef %50) #14
  %52 = load ptr, ptr %9, align 8, !tbaa !39
  %53 = call i32 @Vec_IntSize(ptr noundef %52)
  %54 = sext i32 %53 to i64
  %55 = mul i64 4, %54
  call void @llvm.memset.p0.i64(ptr align 1 %51, i8 -1, i64 %55, i1 false)
  %56 = load ptr, ptr %5, align 8, !tbaa !81
  %57 = load i32, ptr %6, align 4, !tbaa !3
  %58 = sext i32 %57 to i64
  %59 = getelementptr inbounds ptr, ptr %56, i64 %58
  store ptr %51, ptr %59, align 8, !tbaa !10
  br label %60

60:                                               ; preds = %46
  %61 = load i32, ptr %6, align 4, !tbaa !3
  %62 = add nsw i32 %61, 1
  store i32 %62, ptr %6, align 4, !tbaa !3
  br label %35, !llvm.loop !85

63:                                               ; preds = %44
  %64 = load ptr, ptr %11, align 8, !tbaa !7
  %65 = load ptr, ptr %3, align 8, !tbaa !47
  %66 = load ptr, ptr %5, align 8, !tbaa !81
  %67 = getelementptr inbounds [1000 x i32], ptr %8, i64 0, i64 0
  %68 = load ptr, ptr %4, align 8, !tbaa !39
  %69 = call i32 @Abc_GraphDeriveGia_rec(ptr noundef %64, i32 noundef 0, i32 noundef 0, ptr noundef %65, ptr noundef %66, ptr noundef %67, ptr noundef %68)
  store i32 %69, ptr %7, align 4, !tbaa !3
  store i32 0, ptr %6, align 4, !tbaa !3
  br label %70

70:                                               ; preds = %94, %63
  %71 = load i32, ptr %6, align 4, !tbaa !3
  %72 = load ptr, ptr %3, align 8, !tbaa !47
  %73 = call i32 @Vec_WecSize(ptr noundef %72)
  %74 = icmp slt i32 %71, %73
  br i1 %74, label %75, label %97

75:                                               ; preds = %70
  %76 = load ptr, ptr %5, align 8, !tbaa !81
  %77 = load i32, ptr %6, align 4, !tbaa !3
  %78 = sext i32 %77 to i64
  %79 = getelementptr inbounds ptr, ptr %76, i64 %78
  %80 = load ptr, ptr %79, align 8, !tbaa !10
  %81 = icmp ne ptr %80, null
  br i1 %81, label %82, label %92

82:                                               ; preds = %75
  %83 = load ptr, ptr %5, align 8, !tbaa !81
  %84 = load i32, ptr %6, align 4, !tbaa !3
  %85 = sext i32 %84 to i64
  %86 = getelementptr inbounds ptr, ptr %83, i64 %85
  %87 = load ptr, ptr %86, align 8, !tbaa !10
  call void @free(ptr noundef %87) #12
  %88 = load ptr, ptr %5, align 8, !tbaa !81
  %89 = load i32, ptr %6, align 4, !tbaa !3
  %90 = sext i32 %89 to i64
  %91 = getelementptr inbounds ptr, ptr %88, i64 %90
  store ptr null, ptr %91, align 8, !tbaa !10
  br label %93

92:                                               ; preds = %75
  br label %93

93:                                               ; preds = %92, %82
  br label %94

94:                                               ; preds = %93
  %95 = load i32, ptr %6, align 4, !tbaa !3
  %96 = add nsw i32 %95, 1
  store i32 %96, ptr %6, align 4, !tbaa !3
  br label %70, !llvm.loop !86

97:                                               ; preds = %70
  %98 = load ptr, ptr %5, align 8, !tbaa !81
  %99 = icmp ne ptr %98, null
  br i1 %99, label %100, label %102

100:                                              ; preds = %97
  %101 = load ptr, ptr %5, align 8, !tbaa !81
  call void @free(ptr noundef %101) #12
  store ptr null, ptr %5, align 8, !tbaa !81
  br label %103

102:                                              ; preds = %97
  br label %103

103:                                              ; preds = %102, %100
  %104 = load ptr, ptr %11, align 8, !tbaa !7
  %105 = load i32, ptr %7, align 4, !tbaa !3
  %106 = call i32 @Gia_ManAppendCo(ptr noundef %104, i32 noundef %105)
  %107 = load ptr, ptr %11, align 8, !tbaa !7
  store ptr %107, ptr %10, align 8, !tbaa !7
  %108 = call ptr @Gia_ManCleanup(ptr noundef %107)
  store ptr %108, ptr %11, align 8, !tbaa !7
  %109 = load ptr, ptr %10, align 8, !tbaa !7
  call void @Gia_ManStop(ptr noundef %109)
  %110 = load ptr, ptr %11, align 8, !tbaa !7
  call void @llvm.lifetime.end.p0(i64 8, ptr %11) #12
  call void @llvm.lifetime.end.p0(i64 8, ptr %10) #12
  call void @llvm.lifetime.end.p0(i64 8, ptr %9) #12
  call void @llvm.lifetime.end.p0(i64 4000, ptr %8) #12
  call void @llvm.lifetime.end.p0(i64 4, ptr %7) #12
  call void @llvm.lifetime.end.p0(i64 4, ptr %6) #12
  call void @llvm.lifetime.end.p0(i64 8, ptr %5) #12
  ret ptr %110
}