; Function Attrs: nounwind uwtable
define ptr @Abc_GraphDeriveGia(ptr noundef %0, ptr noundef %1) local_unnamed_addr #1 {
  %3 = alloca [1000 x i32], align 16
  call void @llvm.lifetime.start.p0(i64 4000, ptr nonnull %3) #23
  call void @llvm.memset.p0.i64(ptr noundef nonnull align 16 dereferenceable(4000) %3, i8 0, i64 4000, i1 false)
  %4 = tail call ptr @Gia_ManStart(i32 noundef 1000) #23
  %5 = tail call noalias noundef dereferenceable_or_null(6) ptr @malloc(i64 noundef 6) #26
  tail call void @llvm.memcpy.p0.p0.i64(ptr noundef nonnull align 1 dereferenceable(6) %5, ptr noundef nonnull align 1 dereferenceable(6) @.str.4, i64 6, i1 false) #23
  store ptr %5, ptr %4, align 8, !tbaa !73
  %6 = getelementptr i8, ptr %1, i64 4
  %.val3944 = load i32, ptr %6, align 4, !tbaa !34
  %7 = icmp sgt i32 %.val3944, 1
  br i1 %7, label %.lr.ph, label %._crit_edge

.lr.ph:                                           ; preds = %2, %.lr.ph
  %.045 = phi i32 [ %8, %.lr.ph ], [ 0, %2 ]
  tail call fastcc void @Gia_ManAppendCi(ptr noundef nonnull %4)
  %8 = add nuw nsw i32 %.045, 1
  %.val39 = load i32, ptr %6, align 4, !tbaa !34
  %9 = sdiv i32 %.val39, 2
  %10 = icmp slt i32 %8, %9
  br i1 %10, label %.lr.ph, label %._crit_edge, !llvm.loop !74

._crit_edge:                                      ; preds = %.lr.ph, %2
  tail call void @Gia_ManHashAlloc(ptr noundef nonnull %4) #23
  %11 = getelementptr i8, ptr %0, i64 4
  %.val43 = load i32, ptr %11, align 4, !tbaa !43
  %12 = sext i32 %.val43 to i64
  %13 = shl nsw i64 %12, 3
  %14 = tail call noalias ptr @malloc(i64 noundef %13) #26
  %15 = icmp sgt i32 %.val43, 0
  br i1 %15, label %.lr.ph48, label %.critedge

.lr.ph48:                                         ; preds = %._crit_edge
  %16 = getelementptr i8, ptr %0, i64 8
  %.val40 = load ptr, ptr %16, align 8, !tbaa !46
  %wide.trip.count = zext nneg i32 %.val43 to i64
  br label %17

17:                                               ; preds = %.lr.ph48, %17
  %indvars.iv = phi i64 [ 0, %.lr.ph48 ], [ %indvars.iv.next, %17 ]
  %18 = getelementptr %struct.Vec_Int_t_, ptr %.val40, i64 %indvars.iv, i32 1
  %.val38 = load i32, ptr %18, align 4, !tbaa !34
  %19 = sext i32 %.val38 to i64
  %20 = shl nsw i64 %19, 2
  %21 = tail call noalias ptr @malloc(i64 noundef %20) #26
  tail call void @llvm.memset.p0.i64(ptr align 1 %21, i8 -1, i64 %20, i1 false)
  %22 = getelementptr inbounds nuw ptr, ptr %14, i64 %indvars.iv
  store ptr %21, ptr %22, align 8, !tbaa !72
  %indvars.iv.next = add nuw nsw i64 %indvars.iv, 1
  %exitcond.not = icmp eq i64 %indvars.iv.next, %wide.trip.count
  br i1 %exitcond.not, label %.critedge, label %17, !llvm.loop !75

.critedge:                                        ; preds = %17, %._crit_edge
  %23 = call i32 @Abc_GraphDeriveGia_rec(ptr noundef nonnull %4, i32 noundef 0, i32 noundef 0, ptr noundef nonnull %0, ptr noundef %14, ptr noundef nonnull %3, ptr noundef %1)
  %.val4149 = load i32, ptr %11, align 4, !tbaa !43
  %24 = icmp sgt i32 %.val4149, 0
  br i1 %24, label %.lr.ph51, label %._crit_edge52

.lr.ph51:                                         ; preds = %.critedge, %28
  %.val4157 = phi i32 [ %.val41, %28 ], [ %.val4149, %.critedge ]
  %indvars.iv54 = phi i64 [ %indvars.iv.next55, %28 ], [ 0, %.critedge ]
  %25 = getelementptr inbounds nuw ptr, ptr %14, i64 %indvars.iv54
  %26 = load ptr, ptr %25, align 8, !tbaa !72
  %.not37 = icmp eq ptr %26, null
  br i1 %.not37, label %28, label %27

27:                                               ; preds = %.lr.ph51
  call void @free(ptr noundef nonnull %26) #23
  store ptr null, ptr %25, align 8, !tbaa !72
  %.val41.pre = load i32, ptr %11, align 4, !tbaa !43
  br label %28

28:                                               ; preds = %27, %.lr.ph51
  %.val41 = phi i32 [ %.val41.pre, %27 ], [ %.val4157, %.lr.ph51 ]
  %indvars.iv.next55 = add nuw nsw i64 %indvars.iv54, 1
  %29 = sext i32 %.val41 to i64
  %30 = icmp slt i64 %indvars.iv.next55, %29
  br i1 %30, label %.lr.ph51, label %._crit_edge52.thread, !llvm.loop !76

._crit_edge52:                                    ; preds = %.critedge
  %.not = icmp eq ptr %14, null
  br i1 %.not, label %31, label %._crit_edge52.thread

._crit_edge52.thread:                             ; preds = %28, %._crit_edge52
  call void @free(ptr noundef nonnull %14) #23
  br label %31

31:                                               ; preds = %._crit_edge52, %._crit_edge52.thread
  call fastcc void @Gia_ManAppendCo(ptr noundef nonnull %4, i32 noundef %23)
  %32 = call ptr @Gia_ManCleanup(ptr noundef nonnull %4) #23
  call void @Gia_ManStop(ptr noundef nonnull %4) #23
  call void @llvm.lifetime.end.p0(i64 4000, ptr nonnull %3) #23
  ret ptr %32
}